target datalayout = "e-m:e-p270:32:32-p271:32:32-p272:64:64-i64:64-i128:128-f80:128-n8:16:32:64-S128"
target triple = "x86_64-pc-linux-gnu"

%struct.AVChannelLayout = type { i32, i32, %union.anon.1, ptr }
%union.anon.1 = type { i64 }
%struct.AVRational = type { i32, i32 }
%struct.AVFrame = type { [8 x ptr], [8 x i32], ptr, i32, i32, i32, i32, i32, %struct.AVRational, i64, i64, %struct.AVRational, i32, ptr, i32, i32, [8 x ptr], ptr, i32, ptr, i32, i32, i32, i32, i32, i32, i32, i64, ptr, i32, ptr, ptr, i64, i64, i64, i64, ptr, %struct.AVChannelLayout, i64 }
%union.ColorFloat = type { %struct.RGBFloat }
%struct.RGBFloat = type { float, float, float }

; Function Attrs: nounwind uwtable
define internal void @update_sono_rgb(ptr noundef %0, ptr noundef %1, i32 noundef %2) #1 {
  %4 = alloca ptr, align 8
  %5 = alloca ptr, align 8
  %6 = alloca i32, align 4
  %7 = alloca i32, align 4
  %8 = alloca i32, align 4
  %9 = alloca ptr, align 8
  store ptr %0, ptr %4, align 8, !tbaa !59
  store ptr %1, ptr %5, align 8, !tbaa !159
  store i32 %2, ptr %6, align 4, !tbaa !50
  call void @llvm.lifetime.start.p0(i64 4, ptr %7) #12
  call void @llvm.lifetime.start.p0(i64 4, ptr %8) #12
  %10 = load ptr, ptr %4, align 8, !tbaa !59
  %11 = getelementptr inbounds nuw %struct.AVFrame, ptr %10, i32 0, i32 3
  %12 = load i32, ptr %11, align 8, !tbaa !160
  store i32 %12, ptr %8, align 4, !tbaa !50
  call void @llvm.lifetime.start.p0(i64 8, ptr %9) #12
  %13 = load ptr, ptr %4, align 8, !tbaa !59
  %14 = getelementptr inbounds nuw %struct.AVFrame, ptr %13, i32 0, i32 0
  %15 = getelementptr inbounds [8 x ptr], ptr %14, i64 0, i64 0
  %16 = load ptr, ptr %15, align 8, !tbaa !123
  %17 = load i32, ptr %6, align 4, !tbaa !50
  %18 = load ptr, ptr %4, align 8, !tbaa !59
  %19 = getelementptr inbounds nuw %struct.AVFrame, ptr %18, i32 0, i32 1
  %20 = getelementptr inbounds [8 x i32], ptr %19, i64 0, i64 0
  %21 = load i32, ptr %20, align 8, !tbaa !50
  %22 = mul nsw i32 %17, %21
  %23 = sext i32 %22 to i64
  %24 = getelementptr inbounds i8, ptr %16, i64 %23
  store ptr %24, ptr %9, align 8, !tbaa !123
  store i32 0, ptr %7, align 4, !tbaa !50
  br label %25

25:                                               ; preds = %60, %3
  %26 = load i32, ptr %7, align 4, !tbaa !50
  %27 = load i32, ptr %8, align 4, !tbaa !50
  %28 = icmp slt i32 %26, %27
  br i1 %28, label %29, label %63

29:                                               ; preds = %25
  %30 = load ptr, ptr %5, align 8, !tbaa !159
  %31 = load i32, ptr %7, align 4, !tbaa !50
  %32 = sext i32 %31 to i64
  %33 = getelementptr inbounds %union.ColorFloat, ptr %30, i64 %32
  %34 = getelementptr inbounds nuw %struct.RGBFloat, ptr %33, i32 0, i32 0
  %35 = load float, ptr %34, align 4, !tbaa !161
  %36 = call i64 @llvm.lrint.i64.f32(float %35)
  %37 = trunc i64 %36 to i8
  %38 = load ptr, ptr %9, align 8, !tbaa !123
  %39 = getelementptr inbounds nuw i8, ptr %38, i32 1
  store ptr %39, ptr %9, align 8, !tbaa !123
  store i8 %37, ptr %38, align 1, !tbaa !161
  %40 = load ptr, ptr %5, align 8, !tbaa !159
  %41 = load i32, ptr %7, align 4, !tbaa !50
  %42 = sext i32 %41 to i64
  %43 = getelementptr inbounds %union.ColorFloat, ptr %40, i64 %42
  %44 = getelementptr inbounds nuw %struct.RGBFloat, ptr %43, i32 0, i32 1
  %45 = load float, ptr %44, align 4, !tbaa !161
  %46 = call i64 @llvm.lrint.i64.f32(float %45)
  %47 = trunc i64 %46 to i8
  %48 = load ptr, ptr %9, align 8, !tbaa !123
  %49 = getelementptr inbounds nuw i8, ptr %48, i32 1
  store ptr %49, ptr %9, align 8, !tbaa !123
  store i8 %47, ptr %48, align 1, !tbaa !161
  %50 = load ptr, ptr %5, align 8, !tbaa !159
  %51 = load i32, ptr %7, align 4, !tbaa !50
  %52 = sext i32 %51 to i64
  %53 = getelementptr inbounds %union.ColorFloat, ptr %50, i64 %52
  %54 = getelementptr inbounds nuw %struct.RGBFloat, ptr %53, i32 0, i32 2
  %55 = load float, ptr %54, align 4, !tbaa !161
  %56 = call i64 @llvm.lrint.i64.f32(float %55)
  %57 = trunc i64 %56 to i8
  %58 = load ptr, ptr %9, align 8, !tbaa !123
  %59 = getelementptr inbounds nuw i8, ptr %58, i32 1
  store ptr %59, ptr %9, align 8, !tbaa !123
  store i8 %57, ptr %58, align 1, !tbaa !161
  br label %60

60:                                               ; preds = %29
  %61 = load i32, ptr %7, align 4, !tbaa !50
  %62 = add nsw i32 %61, 1
  store i32 %62, ptr %7, align 4, !tbaa !50
  br label %25, !llvm.loop !166

63:                                               ; preds = %25
  call void @llvm.lifetime.end.p0(i64 8, ptr %9) #12
  call void @llvm.lifetime.end.p0(i64 4, ptr %8) #12
  call void @llvm.lifetime.end.p0(i64 4, ptr %7) #12
  ret void
}