; Function Attrs: nofree norecurse nosync nounwind memory(write, argmem: readwrite, inaccessiblemem: none) uwtable
define internal void @update_sono_rgb(ptr noundef readonly captures(none) %0, ptr noundef readonly captures(none) %1, i32 noundef %2) #8 {
  %4 = getelementptr inbounds nuw i8, ptr %0, i64 104
  %5 = load i32, ptr %4, align 8, !tbaa !147
  %6 = icmp sgt i32 %5, 0
  br i1 %6, label %.lr.ph.preheader, label %._crit_edge

.lr.ph.preheader:                                 ; preds = %3
  %7 = load ptr, ptr %0, align 8, !tbaa !130
  %8 = getelementptr inbounds nuw i8, ptr %0, i64 64
  %9 = load i32, ptr %8, align 8, !tbaa !143
  %10 = mul nsw i32 %9, %2
  %11 = sext i32 %10 to i64
  %12 = getelementptr inbounds i8, ptr %7, i64 %11
  %wide.trip.count = zext nneg i32 %5 to i64
  br label %.lr.ph

.lr.ph:                                           ; preds = %.lr.ph.preheader, %.lr.ph
  %indvars.iv = phi i64 [ 0, %.lr.ph.preheader ], [ %indvars.iv.next, %.lr.ph ]
  %.017 = phi ptr [ %12, %.lr.ph.preheader ], [ %27, %.lr.ph ]
  %13 = getelementptr inbounds nuw %union.ColorFloat, ptr %1, i64 %indvars.iv
  %14 = load float, ptr %13, align 4, !tbaa !148
  %15 = tail call i64 @llvm.lrint.i64.f32(float %14)
  %16 = trunc i64 %15 to i8
  %17 = getelementptr inbounds nuw i8, ptr %.017, i64 1
  store i8 %16, ptr %.017, align 1, !tbaa !148
  %18 = getelementptr inbounds nuw i8, ptr %13, i64 4
  %19 = load float, ptr %18, align 4, !tbaa !148
  %20 = tail call i64 @llvm.lrint.i64.f32(float %19)
  %21 = trunc i64 %20 to i8
  %22 = getelementptr inbounds nuw i8, ptr %.017, i64 2
  store i8 %21, ptr %17, align 1, !tbaa !148
  %23 = getelementptr inbounds nuw i8, ptr %13, i64 8
  %24 = load float, ptr %23, align 4, !tbaa !148
  %25 = tail call i64 @llvm.lrint.i64.f32(float %24)
  %26 = trunc i64 %25 to i8
  %27 = getelementptr inbounds nuw i8, ptr %.017, i64 3
  store i8 %26, ptr %22, align 1, !tbaa !148
  %indvars.iv.next = add nuw nsw i64 %indvars.iv, 1
  %exitcond.not = icmp eq i64 %indvars.iv.next, %wide.trip.count
  br i1 %exitcond.not, label %._crit_edge, label %.lr.ph, !llvm.loop !153

._crit_edge:                                      ; preds = %.lr.ph, %3
  ret void
}